target datalayout = "e-m:e-p270:32:32-p271:32:32-p272:64:64-i64:64-i128:128-f80:128-n8:16:32:64-S128"
target triple = "x86_64-pc-linux-gnu"

%union.Cubic = type { [4 x float] }

@ResampleFrame = internal global [8 x ptr] zeroinitializer, align 16
@ResamplerFilter = internal global [8 x [10 x %union.Cubic]] zeroinitializer, align 16

; Function Attrs: nounwind uwtable
define hidden void @SDL_ResampleAudio(i32 noundef %0, ptr noundef %1, i32 noundef %2, ptr noundef %3, i32 noundef %4, i64 noundef %5, ptr noundef %6) #0 {
  %8 = alloca i32, align 4
  %9 = alloca ptr, align 8
  %10 = alloca i32, align 4
  %11 = alloca ptr, align 8
  %12 = alloca i32, align 4
  %13 = alloca i64, align 8
  %14 = alloca ptr, align 8
  %15 = alloca i32, align 4
  %16 = alloca i64, align 8
  %17 = alloca ptr, align 8
  %18 = alloca i32, align 4
  %19 = alloca i32, align 4
  %20 = alloca ptr, align 8
  %21 = alloca float, align 4
  %22 = alloca ptr, align 8
  store i32 %0, ptr %8, align 4
  store ptr %1, ptr %9, align 8
  store i32 %2, ptr %10, align 4
  store ptr %3, ptr %11, align 8
  store i32 %4, ptr %12, align 4
  store i64 %5, ptr %13, align 8
  store ptr %6, ptr %14, align 8
  call void @llvm.lifetime.start.p0(i64 4, ptr %15) #6
  call void @llvm.lifetime.start.p0(i64 8, ptr %16) #6
  %23 = load ptr, ptr %14, align 8
  %24 = load i64, ptr %23, align 8
  store i64 %24, ptr %16, align 8
  call void @llvm.lifetime.start.p0(i64 8, ptr %17) #6
  %25 = load i32, ptr %8, align 4
  %26 = sub nsw i32 %25, 1
  %27 = sext i32 %26 to i64
  %28 = getelementptr inbounds [8 x ptr], ptr @ResampleFrame, i64 0, i64 %27
  %29 = load ptr, ptr %28, align 8
  store ptr %29, ptr %17, align 8
  br label %30

30:                                               ; preds = %7
  br label %31

31:                                               ; preds = %30
  br label %32

32:                                               ; preds = %31
  %33 = load i32, ptr %8, align 4
  %34 = mul nsw i32 4, %33
  %35 = load ptr, ptr %9, align 8
  %36 = sext i32 %34 to i64
  %37 = sub i64 0, %36
  %38 = getelementptr inbounds float, ptr %35, i64 %37
  store ptr %38, ptr %9, align 8
  store i32 0, ptr %15, align 4
  br label %39

39:                                               ; preds = %81, %32
  %40 = load i32, ptr %15, align 4
  %41 = load i32, ptr %12, align 4
  %42 = icmp slt i32 %40, %41
  br i1 %42, label %43, label %84

43:                                               ; preds = %39
  call void @llvm.lifetime.start.p0(i64 4, ptr %18) #6
  %44 = load i64, ptr %16, align 8
  %45 = ashr i64 %44, 32
  %46 = trunc i64 %45 to i32
  store i32 %46, ptr %18, align 4
  call void @llvm.lifetime.start.p0(i64 4, ptr %19) #6
  %47 = load i64, ptr %16, align 8
  %48 = and i64 %47, 4294967295
  %49 = trunc i64 %48 to i32
  store i32 %49, ptr %19, align 4
  %50 = load i64, ptr %13, align 8
  %51 = load i64, ptr %16, align 8
  %52 = add nsw i64 %51, %50
  store i64 %52, ptr %16, align 8
  br label %53

53:                                               ; preds = %43
  br label %54

54:                                               ; preds = %53
  br label %55

55:                                               ; preds = %54
  call void @llvm.lifetime.start.p0(i64 8, ptr %20) #6
  %56 = load i32, ptr %19, align 4
  %57 = lshr i32 %56, 29
  %58 = zext i32 %57 to i64
  %59 = getelementptr inbounds nuw [8 x [10 x %union.Cubic]], ptr @ResamplerFilter, i64 0, i64 %58
  %60 = getelementptr inbounds [10 x %union.Cubic], ptr %59, i64 0, i64 0
  store ptr %60, ptr %20, align 8
  call void @llvm.lifetime.start.p0(i64 4, ptr %21) #6
  %61 = load i32, ptr %19, align 4
  %62 = and i32 %61, 536870911
  %63 = uitofp i32 %62 to float
  %64 = fmul float %63, 0x3E20000000000000
  store float %64, ptr %21, align 4
  call void @llvm.lifetime.start.p0(i64 8, ptr %22) #6
  %65 = load ptr, ptr %9, align 8
  %66 = load i32, ptr %18, align 4
  %67 = load i32, ptr %8, align 4
  %68 = mul nsw i32 %66, %67
  %69 = sext i32 %68 to i64
  %70 = getelementptr inbounds float, ptr %65, i64 %69
  store ptr %70, ptr %22, align 8
  %71 = load ptr, ptr %17, align 8
  %72 = load ptr, ptr %22, align 8
  %73 = load ptr, ptr %11, align 8
  %74 = load ptr, ptr %20, align 8
  %75 = load float, ptr %21, align 4
  %76 = load i32, ptr %8, align 4
  call void %71(ptr noundef %72, ptr noundef %73, ptr noundef %74, float noundef %75, i32 noundef %76)
  %77 = load i32, ptr %8, align 4
  %78 = load ptr, ptr %11, align 8
  %79 = sext i32 %77 to i64
  %80 = getelementptr inbounds float, ptr %78, i64 %79
  store ptr %80, ptr %11, align 8
  call void @llvm.lifetime.end.p0(i64 8, ptr %22) #6
  call void @llvm.lifetime.end.p0(i64 4, ptr %21) #6
  call void @llvm.lifetime.end.p0(i64 8, ptr %20) #6
  call void @llvm.lifetime.end.p0(i64 4, ptr %19) #6
  call void @llvm.lifetime.end.p0(i64 4, ptr %18) #6
  br label %81

81:                                               ; preds = %55
  %82 = load i32, ptr %15, align 4
  %83 = add nsw i32 %82, 1
  store i32 %83, ptr %15, align 4
  br label %39, !llvm.loop !9

84:                                               ; preds = %39
  %85 = load i64, ptr %16, align 8
  %86 = load i32, ptr %10, align 4
  %87 = sext i32 %86 to i64
  %88 = shl i64 %87, 32
  %89 = sub nsw i64 %85, %88
  %90 = load ptr, ptr %14, align 8
  store i64 %89, ptr %90, align 8
  call void @llvm.lifetime.end.p0(i64 8, ptr %17) #6
  call void @llvm.lifetime.end.p0(i64 8, ptr %16) #6
  call void @llvm.lifetime.end.p0(i64 4, ptr %15) #6
  ret void
}