; Function Attrs: nounwind uwtable
define hidden void @SDL_ResampleAudio(i32 noundef %0, ptr noundef %1, i32 noundef %2, ptr noundef %3, i32 noundef %4, i64 noundef %5, ptr noundef captures(none) %6) local_unnamed_addr #0 {
  %8 = load i64, ptr %6, align 8
  %9 = add nsw i32 %0, -1
  %10 = sext i32 %9 to i64
  %11 = getelementptr inbounds [8 x ptr], ptr @ResampleFrame, i64 0, i64 %10
  %12 = load ptr, ptr %11, align 8
  %13 = shl nsw i32 %0, 2
  %14 = sext i32 %13 to i64
  %15 = sub nsw i64 0, %14
  %16 = getelementptr inbounds float, ptr %1, i64 %15
  %17 = icmp sgt i32 %4, 0
  br i1 %17, label %.lr.ph, label %._crit_edge

.lr.ph:                                           ; preds = %7
  %18 = sext i32 %0 to i64
  br label %19

19:                                               ; preds = %.lr.ph, %19
  %.030 = phi ptr [ %3, %.lr.ph ], [ %33, %19 ]
  %.02629 = phi i32 [ 0, %.lr.ph ], [ %34, %19 ]
  %.02728 = phi i64 [ %8, %.lr.ph ], [ %23, %19 ]
  %20 = lshr i64 %.02728, 32
  %21 = trunc nuw i64 %20 to i32
  %22 = trunc i64 %.02728 to i32
  %23 = add nsw i64 %.02728, %5
  %24 = lshr i64 %.02728, 29
  %25 = and i64 %24, 7
  %26 = getelementptr inbounds nuw [8 x [10 x %union.Cubic]], ptr @ResamplerFilter, i64 0, i64 %25
  %27 = and i32 %22, 536870911
  %28 = uitofp nneg i32 %27 to float
  %29 = fmul float %28, 0x3E20000000000000
  %30 = mul nsw i32 %0, %21
  %31 = sext i32 %30 to i64
  %32 = getelementptr inbounds float, ptr %16, i64 %31
  tail call void %12(ptr noundef %32, ptr noundef %.030, ptr noundef nonnull %26, float noundef %29, i32 noundef %0) #8
  %33 = getelementptr inbounds float, ptr %.030, i64 %18
  %34 = add nuw nsw i32 %.02629, 1
  %exitcond.not = icmp eq i32 %34, %4
  br i1 %exitcond.not, label %._crit_edge, label %19, !llvm.loop !10

._crit_edge:                                      ; preds = %19, %7
  %.027.lcssa = phi i64 [ %8, %7 ], [ %23, %19 ]
  %35 = sext i32 %2 to i64
  %36 = shl nsw i64 %35, 32
  %37 = sub nsw i64 %.027.lcssa, %36
  store i64 %37, ptr %6, align 8
  ret void
}